target datalayout = "e-m:e-p270:32:32-p271:32:32-p272:64:64-i64:64-i128:128-f80:128-n8:16:32:64-S128"
target triple = "x86_64-pc-linux-gnu"

%struct.Gla_Man_t_ = type { ptr, ptr, ptr, ptr, ptr, ptr, ptr, i32, i32, i32, i32, i32, ptr, ptr, ptr, ptr, ptr, ptr, ptr, i32, ptr, ptr, ptr, i64, i64, i64, i64, i64 }
%struct.Gla_Obj_t_ = type { i32, i32, [4 x i32], %struct.Vec_Int_t_ }
%struct.Vec_Int_t_ = type { i32, i32, ptr }

; Function Attrs: inlinehint nounwind uwtable
define internal ptr @Gla_ManObj(ptr noundef %0, i32 noundef %1) #2 {
  %3 = alloca ptr, align 8
  %4 = alloca i32, align 4
  store ptr %0, ptr %3, align 8, !tbaa !3
  store i32 %1, ptr %4, align 4, !tbaa !14
  %5 = load i32, ptr %4, align 4, !tbaa !14
  %6 = icmp ne i32 %5, 0
  br i1 %6, label %7, label %14

7:                                                ; preds = %2
  %8 = load ptr, ptr %3, align 8, !tbaa !3
  %9 = getelementptr inbounds nuw %struct.Gla_Man_t_, ptr %8, i32 0, i32 5
  %10 = load ptr, ptr %9, align 8, !tbaa !49
  %11 = load i32, ptr %4, align 4, !tbaa !14
  %12 = sext i32 %11 to i64
  %13 = getelementptr inbounds %struct.Gla_Obj_t_, ptr %10, i64 %12
  br label %15

14:                                               ; preds = %2
  br label %15

15:                                               ; preds = %14, %7
  %16 = phi ptr [ %13, %7 ], [ null, %14 ]
  ret ptr %16
}

; Function Attrs: inlinehint nounwind uwtable
define internal i32 @Vec_IntEntry(ptr noundef %0, i32 noundef %1) #2 {
  %3 = alloca ptr, align 8
  %4 = alloca i32, align 4
  store ptr %0, ptr %3, align 8, !tbaa !12
  store i32 %1, ptr %4, align 4, !tbaa !14
  %5 = load ptr, ptr %3, align 8, !tbaa !12
  %6 = getelementptr inbounds nuw %struct.Vec_Int_t_, ptr %5, i32 0, i32 2
  %7 = load ptr, ptr %6, align 8, !tbaa !48
  %8 = load i32, ptr %4, align 4, !tbaa !14
  %9 = sext i32 %8 to i64
  %10 = getelementptr inbounds i32, ptr %7, i64 %9
  %11 = load i32, ptr %10, align 4, !tbaa !14
  ret i32 %11
}

; Function Attrs: inlinehint nounwind uwtable
define internal i32 @Vec_IntSize(ptr noundef %0) #2 {
  %2 = alloca ptr, align 8
  store ptr %0, ptr %2, align 8, !tbaa !12
  %3 = load ptr, ptr %2, align 8, !tbaa !12
  %4 = getelementptr inbounds nuw %struct.Vec_Int_t_, ptr %3, i32 0, i32 1
  %5 = load i32, ptr %4, align 4, !tbaa !46
  ret i32 %5
}

; Function Attrs: nounwind uwtable
define i32 @Gia_GlaAbsCount(ptr noundef %0, i32 noundef %1, i32 noundef %2) #0 {
  %4 = alloca ptr, align 8
  %5 = alloca i32, align 4
  %6 = alloca i32, align 4
  %7 = alloca ptr, align 8
  %8 = alloca i32, align 4
  %9 = alloca i32, align 4
  store ptr %0, ptr %4, align 8, !tbaa !3
  store i32 %1, ptr %5, align 4, !tbaa !14
  store i32 %2, ptr %6, align 4, !tbaa !14
  call void @llvm.lifetime.start.p0(i64 8, ptr %7) #13
  call void @llvm.lifetime.start.p0(i64 4, ptr %8) #13
  call void @llvm.lifetime.start.p0(i64 4, ptr %9) #13
  store i32 0, ptr %9, align 4, !tbaa !14
  %10 = load i32, ptr %5, align 4, !tbaa !14
  %11 = icmp ne i32 %10, 0
  br i1 %11, label %12, label %52

12:                                               ; preds = %3
  store i32 0, ptr %8, align 4, !tbaa !14
  br label %13

13:                                               ; preds = %48, %12
  %14 = load i32, ptr %8, align 4, !tbaa !14
  %15 = load ptr, ptr %4, align 8, !tbaa !3
  %16 = getelementptr inbounds nuw %struct.Gla_Man_t_, ptr %15, i32 0, i32 3
  %17 = load ptr, ptr %16, align 8, !tbaa !16
  %18 = call i32 @Vec_IntSize(ptr noundef %17)
  %19 = icmp slt i32 %14, %18
  br i1 %19, label %20, label %28

20:                                               ; preds = %13
  %21 = load ptr, ptr %4, align 8, !tbaa !3
  %22 = load ptr, ptr %4, align 8, !tbaa !3
  %23 = getelementptr inbounds nuw %struct.Gla_Man_t_, ptr %22, i32 0, i32 3
  %24 = load ptr, ptr %23, align 8, !tbaa !16
  %25 = load i32, ptr %8, align 4, !tbaa !14
  %26 = call i32 @Vec_IntEntry(ptr noundef %24, i32 noundef %25)
  %27 = call ptr @Gla_ManObj(ptr noundef %21, i32 noundef %26)
  store ptr %27, ptr %7, align 8, !tbaa !26
  br label %28

28:                                               ; preds = %20, %13
  %29 = phi i1 [ false, %13 ], [ true, %20 ]
  br i1 %29, label %30, label %51

30:                                               ; preds = %28
  %31 = load ptr, ptr %7, align 8, !tbaa !26
  %32 = getelementptr inbounds nuw %struct.Gla_Obj_t_, ptr %31, i32 0, i32 1
  %33 = load i32, ptr %32, align 4
  %34 = lshr i32 %33, 5
  %35 = and i32 %34, 1
  %36 = icmp ne i32 %35, 0
  br i1 %36, label %37, label %43

37:                                               ; preds = %30
  %38 = load ptr, ptr %7, align 8, !tbaa !26
  %39 = getelementptr inbounds nuw %struct.Gla_Obj_t_, ptr %38, i32 0, i32 1
  %40 = load i32, ptr %39, align 4
  %41 = and i32 %40, 1
  %42 = icmp ne i32 %41, 0
  br label %43

43:                                               ; preds = %37, %30
  %44 = phi i1 [ false, %30 ], [ %42, %37 ]
  %45 = zext i1 %44 to i32
  %46 = load i32, ptr %9, align 4, !tbaa !14
  %47 = add nsw i32 %46, %45
  store i32 %47, ptr %9, align 4, !tbaa !14
  br label %48

48:                                               ; preds = %43
  %49 = load i32, ptr %8, align 4, !tbaa !14
  %50 = add nsw i32 %49, 1
  store i32 %50, ptr %8, align 4, !tbaa !14
  br label %13, !llvm.loop !195

51:                                               ; preds = %28
  br label %125

52:                                               ; preds = %3
  %53 = load i32, ptr %6, align 4, !tbaa !14
  %54 = icmp ne i32 %53, 0
  br i1 %54, label %55, label %95

55:                                               ; preds = %52
  store i32 0, ptr %8, align 4, !tbaa !14
  br label %56

56:                                               ; preds = %91, %55
  %57 = load i32, ptr %8, align 4, !tbaa !14
  %58 = load ptr, ptr %4, align 8, !tbaa !3
  %59 = getelementptr inbounds nuw %struct.Gla_Man_t_, ptr %58, i32 0, i32 3
  %60 = load ptr, ptr %59, align 8, !tbaa !16
  %61 = call i32 @Vec_IntSize(ptr noundef %60)
  %62 = icmp slt i32 %57, %61
  br i1 %62, label %63, label %71

63:                                               ; preds = %56
  %64 = load ptr, ptr %4, align 8, !tbaa !3
  %65 = load ptr, ptr %4, align 8, !tbaa !3
  %66 = getelementptr inbounds nuw %struct.Gla_Man_t_, ptr %65, i32 0, i32 3
  %67 = load ptr, ptr %66, align 8, !tbaa !16
  %68 = load i32, ptr %8, align 4, !tbaa !14
  %69 = call i32 @Vec_IntEntry(ptr noundef %67, i32 noundef %68)
  %70 = call ptr @Gla_ManObj(ptr noundef %64, i32 noundef %69)
  store ptr %70, ptr %7, align 8, !tbaa !26
  br label %71

71:                                               ; preds = %63, %56
  %72 = phi i1 [ false, %56 ], [ true, %63 ]
  br i1 %72, label %73, label %94

73:                                               ; preds = %71
  %74 = load ptr, ptr %7, align 8, !tbaa !26
  %75 = getelementptr inbounds nuw %struct.Gla_Obj_t_, ptr %74, i32 0, i32 1
  %76 = load i32, ptr %75, align 4
  %77 = lshr i32 %76, 7
  %78 = and i32 %77, 1
  %79 = icmp ne i32 %78, 0
  br i1 %79, label %80, label %86

80:                                               ; preds = %73
  %81 = load ptr, ptr %7, align 8, !tbaa !26
  %82 = getelementptr inbounds nuw %struct.Gla_Obj_t_, ptr %81, i32 0, i32 1
  %83 = load i32, ptr %82, align 4
  %84 = and i32 %83, 1
  %85 = icmp ne i32 %84, 0
  br label %86

86:                                               ; preds = %80, %73
  %87 = phi i1 [ false, %73 ], [ %85, %80 ]
  %88 = zext i1 %87 to i32
  %89 = load i32, ptr %9, align 4, !tbaa !14
  %90 = add nsw i32 %89, %88
  store i32 %90, ptr %9, align 4, !tbaa !14
  br label %91

91:                                               ; preds = %86
  %92 = load i32, ptr %8, align 4, !tbaa !14
  %93 = add nsw i32 %92, 1
  store i32 %93, ptr %8, align 4, !tbaa !14
  br label %56, !llvm.loop !196

94:                                               ; preds = %71
  br label %124

95:                                               ; preds = %52
  store i32 0, ptr %8, align 4, !tbaa !14
  br label %96

96:                                               ; preds = %120, %95
  %97 = load i32, ptr %8, align 4, !tbaa !14
  %98 = load ptr, ptr %4, align 8, !tbaa !3
  %99 = getelementptr inbounds nuw %struct.Gla_Man_t_, ptr %98, i32 0, i32 3
  %100 = load ptr, ptr %99, align 8, !tbaa !16
  %101 = call i32 @Vec_IntSize(ptr noundef %100)
  %102 = icmp slt i32 %97, %101
  br i1 %102, label %103, label %111

103:                                              ; preds = %96
  %104 = load ptr, ptr %4, align 8, !tbaa !3
  %105 = load ptr, ptr %4, align 8, !tbaa !3
  %106 = getelementptr inbounds nuw %struct.Gla_Man_t_, ptr %105, i32 0, i32 3
  %107 = load ptr, ptr %106, align 8, !tbaa !16
  %108 = load i32, ptr %8, align 4, !tbaa !14
  %109 = call i32 @Vec_IntEntry(ptr noundef %107, i32 noundef %108)
  %110 = call ptr @Gla_ManObj(ptr noundef %104, i32 noundef %109)
  store ptr %110, ptr %7, align 8, !tbaa !26
  br label %111

111:                                              ; preds = %103, %96
  %112 = phi i1 [ false, %96 ], [ true, %103 ]
  br i1 %112, label %113, label %123

113:                                              ; preds = %111
  %114 = load ptr, ptr %7, align 8, !tbaa !26
  %115 = getelementptr inbounds nuw %struct.Gla_Obj_t_, ptr %114, i32 0, i32 1
  %116 = load i32, ptr %115, align 4
  %117 = and i32 %116, 1
  %118 = load i32, ptr %9, align 4, !tbaa !14
  %119 = add nsw i32 %118, %117
  store i32 %119, ptr %9, align 4, !tbaa !14
  br label %120

120:                                              ; preds = %113
  %121 = load i32, ptr %8, align 4, !tbaa !14
  %122 = add nsw i32 %121, 1
  store i32 %122, ptr %8, align 4, !tbaa !14
  br label %96, !llvm.loop !197

123:                                              ; preds = %111
  br label %124

124:                                              ; preds = %123, %94
  br label %125

125:                                              ; preds = %124, %51
  %126 = load i32, ptr %9, align 4, !tbaa !14
  call void @llvm.lifetime.end.p0(i64 4, ptr %9) #13
  call void @llvm.lifetime.end.p0(i64 4, ptr %8) #13
  call void @llvm.lifetime.end.p0(i64 8, ptr %7) #13
  ret i32 %126
}