; Function Attrs: nofree norecurse nosync nounwind memory(read, inaccessiblemem: none) uwtable
define i32 @Gia_GlaAbsCount(ptr noundef readonly captures(none) %0, i32 noundef %1, i32 noundef %2) local_unnamed_addr #10 {
  %.not = icmp eq i32 %1, 0
  br i1 %.not, label %19, label %.preheader50

.preheader50:                                     ; preds = %3
  %4 = getelementptr inbounds nuw i8, ptr %0, i64 24
  %5 = load ptr, ptr %4, align 8, !tbaa !12
  %6 = getelementptr i8, ptr %5, i64 4
  %.val40 = load i32, ptr %6, align 4, !tbaa !3
  %7 = icmp sgt i32 %.val40, 0
  br i1 %7, label %Gla_ManObj.exit.lr.ph, label %.critedge

Gla_ManObj.exit.lr.ph:                            ; preds = %.preheader50
  %8 = getelementptr i8, ptr %5, i64 8
  %.val43 = load ptr, ptr %8, align 8, !tbaa !11
  %9 = getelementptr inbounds nuw i8, ptr %0, i64 40
  %10 = load ptr, ptr %9, align 8, !tbaa !23
  %wide.trip.count = zext nneg i32 %.val40 to i64
  br label %Gla_ManObj.exit

Gla_ManObj.exit:                                  ; preds = %Gla_ManObj.exit.lr.ph, %Gla_ManObj.exit
  %indvars.iv = phi i64 [ 0, %Gla_ManObj.exit.lr.ph ], [ %indvars.iv.next, %Gla_ManObj.exit ]
  %.053 = phi i32 [ 0, %Gla_ManObj.exit.lr.ph ], [ %18, %Gla_ManObj.exit ]
  %11 = getelementptr inbounds nuw i32, ptr %.val43, i64 %indvars.iv
  %12 = load i32, ptr %11, align 4, !tbaa !22
  %.not.i = icmp ne i32 %12, 0
  tail call void @llvm.assume(i1 %.not.i)
  %13 = sext i32 %12 to i64
  %14 = getelementptr inbounds %struct.Gla_Obj_t_, ptr %10, i64 %13, i32 1
  %15 = load i32, ptr %14, align 4
  %16 = and i32 %15, 32
  %.not37 = icmp eq i32 %16, 0
  %17 = and i32 %15, 1
  %spec.select = select i1 %.not37, i32 0, i32 %17
  %18 = add nuw nsw i32 %spec.select, %.053
  %indvars.iv.next = add nuw nsw i64 %indvars.iv, 1
  %exitcond.not = icmp eq i64 %indvars.iv.next, %wide.trip.count
  br i1 %exitcond.not, label %.critedge, label %Gla_ManObj.exit, !llvm.loop !194

19:                                               ; preds = %3
  %.not35 = icmp eq i32 %2, 0
  %20 = getelementptr inbounds nuw i8, ptr %0, i64 24
  %21 = load ptr, ptr %20, align 8, !tbaa !12
  %22 = getelementptr i8, ptr %21, i64 4
  %.val = load i32, ptr %22, align 4, !tbaa !3
  %23 = icmp sgt i32 %.val, 0
  br i1 %.not35, label %.preheader, label %.preheader48

.preheader48:                                     ; preds = %19
  br i1 %23, label %Gla_ManObj.exit45.lr.ph, label %.critedge

Gla_ManObj.exit45.lr.ph:                          ; preds = %.preheader48
  %24 = getelementptr i8, ptr %21, i64 8
  %.val42 = load ptr, ptr %24, align 8, !tbaa !11
  %25 = getelementptr inbounds nuw i8, ptr %0, i64 40
  %26 = load ptr, ptr %25, align 8, !tbaa !23
  %wide.trip.count68 = zext nneg i32 %.val to i64
  br label %Gla_ManObj.exit45

.preheader:                                       ; preds = %19
  br i1 %23, label %Gla_ManObj.exit47.lr.ph, label %.critedge

Gla_ManObj.exit47.lr.ph:                          ; preds = %.preheader
  %27 = getelementptr i8, ptr %21, i64 8
  %.val41 = load ptr, ptr %27, align 8, !tbaa !11
  %28 = getelementptr inbounds nuw i8, ptr %0, i64 40
  %29 = load ptr, ptr %28, align 8, !tbaa !23
  %wide.trip.count73 = zext nneg i32 %.val to i64
  br label %Gla_ManObj.exit47

Gla_ManObj.exit45:                                ; preds = %Gla_ManObj.exit45.lr.ph, %Gla_ManObj.exit45
  %indvars.iv65 = phi i64 [ 0, %Gla_ManObj.exit45.lr.ph ], [ %indvars.iv.next66, %Gla_ManObj.exit45 ]
  %.255 = phi i32 [ 0, %Gla_ManObj.exit45.lr.ph ], [ %37, %Gla_ManObj.exit45 ]
  %30 = getelementptr inbounds nuw i32, ptr %.val42, i64 %indvars.iv65
  %31 = load i32, ptr %30, align 4, !tbaa !22
  %.not.i44 = icmp ne i32 %31, 0
  tail call void @llvm.assume(i1 %.not.i44)
  %32 = sext i32 %31 to i64
  %33 = getelementptr inbounds %struct.Gla_Obj_t_, ptr %26, i64 %32, i32 1
  %34 = load i32, ptr %33, align 4
  %35 = and i32 %34, 128
  %.not36 = icmp eq i32 %35, 0
  %36 = and i32 %34, 1
  %spec.select38 = select i1 %.not36, i32 0, i32 %36
  %37 = add nuw nsw i32 %spec.select38, %.255
  %indvars.iv.next66 = add nuw nsw i64 %indvars.iv65, 1
  %exitcond69.not = icmp eq i64 %indvars.iv.next66, %wide.trip.count68
  br i1 %exitcond69.not, label %.critedge, label %Gla_ManObj.exit45, !llvm.loop !195

Gla_ManObj.exit47:                                ; preds = %Gla_ManObj.exit47.lr.ph, %Gla_ManObj.exit47
  %indvars.iv70 = phi i64 [ 0, %Gla_ManObj.exit47.lr.ph ], [ %indvars.iv.next71, %Gla_ManObj.exit47 ]
  %.358 = phi i32 [ 0, %Gla_ManObj.exit47.lr.ph ], [ %44, %Gla_ManObj.exit47 ]
  %38 = getelementptr inbounds nuw i32, ptr %.val41, i64 %indvars.iv70
  %39 = load i32, ptr %38, align 4, !tbaa !22
  %.not.i46 = icmp ne i32 %39, 0
  tail call void @llvm.assume(i1 %.not.i46)
  %40 = sext i32 %39 to i64
  %41 = getelementptr inbounds %struct.Gla_Obj_t_, ptr %29, i64 %40, i32 1
  %42 = load i32, ptr %41, align 4
  %43 = and i32 %42, 1
  %44 = add nuw nsw i32 %43, %.358
  %indvars.iv.next71 = add nuw nsw i64 %indvars.iv70, 1
  %exitcond74.not = icmp eq i64 %indvars.iv.next71, %wide.trip.count73
  br i1 %exitcond74.not, label %.critedge, label %Gla_ManObj.exit47, !llvm.loop !196

.critedge:                                        ; preds = %Gla_ManObj.exit, %Gla_ManObj.exit45, %Gla_ManObj.exit47, %.preheader50, %.preheader48, %.preheader
  %.1 = phi i32 [ 0, %.preheader ], [ 0, %.preheader48 ], [ 0, %.preheader50 ], [ %44, %Gla_ManObj.exit47 ], [ %37, %Gla_ManObj.exit45 ], [ %18, %Gla_ManObj.exit ]
  ret i32 %.1
}